target datalayout = "e-m:e-p270:32:32-p271:32:32-p272:64:64-i64:64-i128:128-f80:128-n8:16:32:64-S128"
target triple = "x86_64-pc-linux-gnu"

%struct._zend_executor_globals = type { %struct._zval_struct, %struct._zval_struct, [32 x ptr], ptr, ptr, %struct._zend_array, %struct._zend_array, ptr, i32, i8, %struct._zval_struct, i32, ptr, ptr, ptr, ptr, ptr, ptr, i64, ptr, ptr, i32, ptr, i32, i64, i32, i32, i32, i8, i8, %struct.zend_atomic_bool_s, %struct.zend_atomic_bool_s, ptr, i64, ptr, ptr, %struct._zend_array, %struct._zend_array, i32, i8, %struct._zval_struct, %struct._zval_struct, %struct._zend_stack, %struct._zend_stack, %struct._zend_stack, ptr, i32, i32, i64, ptr, ptr, ptr, %struct._zend_objects_store, %struct._zend_lazy_objects_store, ptr, ptr, ptr, [3 x %struct._zend_op], ptr, i8, i8, i64, i32, i32, ptr, [16 x %struct._HashTableIterator], ptr, %union._zend_function, %struct._zend_op, %struct._zend_array, i64, %struct.zend_get_gc_buffer, ptr, ptr, ptr, i64, i8, i32, ptr, ptr, i64, %struct._zend_call_stack, i64, i64, %struct._zend_strtod_state, [6 x ptr] }
%struct.zend_atomic_bool_s = type { i8 }
%struct._zval_struct = type { %union._zend_value, %union.anon, %union.anon.2 }
%union._zend_value = type { i64 }
%union.anon = type { i32 }
%union.anon.2 = type { i32 }
%struct._zend_stack = type { i32, i32, i32, ptr }
%struct._zend_objects_store = type { ptr, i32, i32, i32 }
%struct._zend_lazy_objects_store = type { %struct._zend_array }
%struct._HashTableIterator = type { ptr, i32, i32 }
%union._zend_function = type { %struct._zend_op_array }
%struct._zend_op_array = type { i8, [3 x i8], i32, ptr, ptr, ptr, i32, i32, ptr, ptr, ptr, ptr, i32, ptr, i32, i32, i32, ptr, ptr, ptr, ptr, ptr, i32, i32, ptr, ptr, ptr, i32, i32, i32, i32, ptr, ptr, [6 x ptr] }
%struct._zend_op = type { ptr, %union._znode_op, %union._znode_op, %union._znode_op, i32, i32, i8, i8, i8, i8 }
%union._znode_op = type { i32 }
%struct._zend_array = type { %struct._zend_refcounted_h, %union.anon.4, i32, %union.anon.6, i32, i32, i32, i32, i64, ptr }
%struct._zend_refcounted_h = type { i32, %union.anon.3 }
%union.anon.3 = type { i32 }
%union.anon.4 = type { i32 }
%union.anon.6 = type { ptr }
%struct.zend_get_gc_buffer = type { ptr, ptr, ptr }
%struct._zend_call_stack = type { ptr, i64 }
%struct._zend_strtod_state = type { [8 x ptr], ptr, ptr }
%struct._zend_execute_data = type { ptr, ptr, ptr, ptr, %struct._zval_struct, ptr, ptr, ptr, ptr }
%struct.anon.0 = type { i8, i8, %union.anon.1 }
%union.anon.1 = type { i16 }
%struct.anon.7 = type { i8, [3 x i8], i32, ptr, ptr, ptr, i32, i32, ptr, ptr, ptr, ptr, i32, ptr }

@executor_globals = external global %struct._zend_executor_globals, align 8
@.str.2 = private unnamed_addr constant [5 x i8] c"bool\00", align 1

; Function Attrs: alwaysinline nounwind uwtable
define internal zeroext i8 @zval_get_type(ptr noundef %0) #2 {
  %2 = alloca ptr, align 8
  store ptr %0, ptr %2, align 8, !tbaa !8
  %3 = load ptr, ptr %2, align 8, !tbaa !8
  %4 = getelementptr inbounds nuw %struct._zval_struct, ptr %3, i32 0, i32 1
  %5 = getelementptr inbounds nuw %struct.anon.0, ptr %4, i32 0, i32 0
  %6 = load i8, ptr %5, align 8, !tbaa !44
  ret i8 %6
}

; Function Attrs: nounwind uwtable
define dso_local zeroext i1 @zend_parse_arg_bool_weak(ptr noundef %0, ptr noundef %1, i32 noundef %2) #0 {
  %4 = alloca i1, align 1
  %5 = alloca ptr, align 8
  %6 = alloca ptr, align 8
  %7 = alloca i32, align 4
  store ptr %0, ptr %5, align 8, !tbaa !8
  store ptr %1, ptr %6, align 8, !tbaa !75
  store i32 %2, ptr %7, align 4, !tbaa !4
  %8 = load ptr, ptr %5, align 8, !tbaa !8
  %9 = call zeroext i8 @zval_get_type(ptr noundef %8)
  %10 = zext i8 %9 to i32
  %11 = icmp sle i32 %10, 6
  %12 = xor i1 %11, true
  %13 = xor i1 %12, true
  %14 = zext i1 %13 to i32
  %15 = sext i32 %14 to i64
  %16 = call i64 @llvm.expect.i64(i64 %15, i64 1)
  %17 = icmp ne i64 %16, 0
  br i1 %17, label %18, label %38

18:                                               ; preds = %3
  %19 = load ptr, ptr %5, align 8, !tbaa !8
  %20 = call zeroext i8 @zval_get_type(ptr noundef %19)
  %21 = zext i8 %20 to i32
  %22 = icmp eq i32 %21, 1
  %23 = xor i1 %22, true
  %24 = xor i1 %23, true
  %25 = zext i1 %24 to i32
  %26 = sext i32 %25 to i64
  %27 = call i64 @llvm.expect.i64(i64 %26, i64 0)
  %28 = icmp ne i64 %27, 0
  br i1 %28, label %29, label %33

29:                                               ; preds = %18
  %30 = load i32, ptr %7, align 4, !tbaa !4
  %31 = call zeroext i1 @zend_null_arg_deprecated(ptr noundef @.str.2, i32 noundef %30)
  br i1 %31, label %33, label %32

32:                                               ; preds = %29
  store i1 false, ptr %4, align 1
  br label %40

33:                                               ; preds = %29, %18
  %34 = load ptr, ptr %5, align 8, !tbaa !8
  %35 = call zeroext i1 @zend_is_true(ptr noundef %34)
  %36 = load ptr, ptr %6, align 8, !tbaa !75
  %37 = zext i1 %35 to i8
  store i8 %37, ptr %36, align 1, !tbaa !72
  br label %39

38:                                               ; preds = %3
  store i1 false, ptr %4, align 1
  br label %40

39:                                               ; preds = %33
  store i1 true, ptr %4, align 1
  br label %40

40:                                               ; preds = %39, %38, %32
  %41 = load i1, ptr %4, align 1
  ret i1 %41
}

; Function Attrs: nounwind uwtable
define dso_local zeroext i1 @zend_flf_parse_arg_bool_slow(ptr noundef %0, ptr noundef %1, i32 noundef %2) #0 {
  %4 = alloca i1, align 1
  %5 = alloca ptr, align 8
  %6 = alloca ptr, align 8
  %7 = alloca i32, align 4
  store ptr %0, ptr %5, align 8, !tbaa !8
  store ptr %1, ptr %6, align 8, !tbaa !75
  store i32 %2, ptr %7, align 4, !tbaa !4
  %8 = load ptr, ptr getelementptr inbounds nuw (%struct._zend_executor_globals, ptr @executor_globals, i32 0, i32 19), align 8, !tbaa !11
  %9 = icmp ne ptr %8, null
  br i1 %9, label %10, label %23

10:                                               ; preds = %3
  %11 = load ptr, ptr getelementptr inbounds nuw (%struct._zend_executor_globals, ptr @executor_globals, i32 0, i32 19), align 8, !tbaa !11
  %12 = getelementptr inbounds nuw %struct._zend_execute_data, ptr %11, i32 0, i32 3
  %13 = load ptr, ptr %12, align 8, !tbaa !82
  %14 = icmp ne ptr %13, null
  br i1 %14, label %15, label %23

15:                                               ; preds = %10
  %16 = load ptr, ptr getelementptr inbounds nuw (%struct._zend_executor_globals, ptr @executor_globals, i32 0, i32 19), align 8, !tbaa !11
  %17 = getelementptr inbounds nuw %struct._zend_execute_data, ptr %16, i32 0, i32 3
  %18 = load ptr, ptr %17, align 8, !tbaa !82
  %19 = getelementptr inbounds nuw %struct.anon.7, ptr %18, i32 0, i32 2
  %20 = load i32, ptr %19, align 4, !tbaa !44
  %21 = and i32 %20, -2147483648
  %22 = icmp ne i32 %21, 0
  br label %23

23:                                               ; preds = %15, %10, %3
  %24 = phi i1 [ false, %10 ], [ false, %3 ], [ %22, %15 ]
  %25 = xor i1 %24, true
  %26 = xor i1 %25, true
  %27 = zext i1 %26 to i32
  %28 = sext i32 %27 to i64
  %29 = call i64 @llvm.expect.i64(i64 %28, i64 0)
  %30 = icmp ne i64 %29, 0
  br i1 %30, label %31, label %32

31:                                               ; preds = %23
  store i1 false, ptr %4, align 1
  br label %37

32:                                               ; preds = %23
  %33 = load ptr, ptr %5, align 8, !tbaa !8
  %34 = load ptr, ptr %6, align 8, !tbaa !75
  %35 = load i32, ptr %7, align 4, !tbaa !4
  %36 = call zeroext i1 @zend_parse_arg_bool_weak(ptr noundef %33, ptr noundef %34, i32 noundef %35)
  store i1 %36, ptr %4, align 1
  br label %37

37:                                               ; preds = %32, %31
  %38 = load i1, ptr %4, align 1
  ret i1 %38
}