; Function Attrs: nounwind uwtable
define dso_local noundef zeroext i1 @zend_flf_parse_arg_bool_slow(ptr noundef %0, ptr noundef writeonly captures(none) %1, i32 noundef %2) local_unnamed_addr #2 {
  %4 = load ptr, ptr getelementptr inbounds nuw (i8, ptr @executor_globals, i64 512), align 8, !tbaa !4
  %.not = icmp eq ptr %4, null
  br i1 %.not, label %.critedge, label %5

5:                                                ; preds = %3
  %6 = getelementptr inbounds nuw i8, ptr %4, i64 24
  %7 = load ptr, ptr %6, align 8, !tbaa !69
  %.not5 = icmp eq ptr %7, null
  br i1 %.not5, label %.critedge, label %8

8:                                                ; preds = %5
  %9 = getelementptr inbounds nuw i8, ptr %7, i64 4
  %10 = load i32, ptr %9, align 4, !tbaa !42
  %11 = icmp slt i32 %10, 0
  br i1 %11, label %zend_parse_arg_bool_weak.exit, label %.critedge, !prof !46

.critedge:                                        ; preds = %5, %3, %8
  %12 = getelementptr inbounds nuw i8, ptr %0, i64 8
  %13 = load i8, ptr %12, align 8, !tbaa !42
  %14 = icmp ult i8 %13, 7
  br i1 %14, label %15, label %zend_parse_arg_bool_weak.exit, !prof !45

15:                                               ; preds = %.critedge
  %16 = icmp eq i8 %13, 1
  br i1 %16, label %17, label %19, !prof !46

17:                                               ; preds = %15
  %18 = tail call fastcc zeroext i1 @zend_null_arg_deprecated(ptr noundef nonnull @.str.2, i32 noundef %2)
  br i1 %18, label %19, label %zend_parse_arg_bool_weak.exit

19:                                               ; preds = %17, %15
  %20 = tail call zeroext i1 @zend_is_true(ptr noundef nonnull %0) #34
  %21 = zext i1 %20 to i8
  store i8 %21, ptr %1, align 1, !tbaa !68
  br label %zend_parse_arg_bool_weak.exit

zend_parse_arg_bool_weak.exit:                    ; preds = %19, %17, %.critedge, %8
  %.0 = phi i1 [ false, %8 ], [ true, %19 ], [ false, %17 ], [ false, %.critedge ]
  ret i1 %.0
}